target datalayout = "e-m:e-p270:32:32-p271:32:32-p272:64:64-i64:64-i128:128-f80:128-n8:16:32:64-S128"
target triple = "x86_64-pc-linux-gnu"

%struct.Abc_Obj_t_ = type { ptr, ptr, i32, i32, %struct.Vec_Int_t_, %struct.Vec_Int_t_, %union.anon, %union.anon.0 }
%struct.Vec_Int_t_ = type { i32, i32, ptr }
%union.anon = type { ptr }
%union.anon.0 = type { ptr }
%struct.Vec_Ptr_t_ = type { i32, i32, ptr }
%struct.Abc_Ntk_t_ = type { i32, i32, ptr, ptr, ptr, ptr, ptr, ptr, ptr, ptr, ptr, ptr, ptr, [11 x i32], i32, i32, i32, i32, ptr, i32, ptr, ptr, i32, i32, i32, double, i32, %struct.Vec_Int_t_, ptr, ptr, ptr, ptr, ptr, float, i32, ptr, ptr, ptr, ptr, ptr, ptr, ptr, ptr, ptr, ptr, ptr, ptr, ptr, ptr, ptr, ptr, ptr, ptr, ptr, ptr, ptr, ptr }

; Function Attrs: inlinehint nounwind uwtable
define internal void @Vec_IntGrow(ptr noundef %0, i32 noundef %1) #2 {
  %3 = alloca ptr, align 8
  %4 = alloca i32, align 4
  store ptr %0, ptr %3, align 8, !tbaa !47
  store i32 %1, ptr %4, align 4, !tbaa !11
  %5 = load ptr, ptr %3, align 8, !tbaa !47
  %6 = getelementptr inbounds nuw %struct.Vec_Int_t_, ptr %5, i32 0, i32 0
  %7 = load i32, ptr %6, align 8, !tbaa !49
  %8 = load i32, ptr %4, align 4, !tbaa !11
  %9 = icmp sge i32 %7, %8
  br i1 %9, label %10, label %11

10:                                               ; preds = %2
  br label %36

11:                                               ; preds = %2
  %12 = load ptr, ptr %3, align 8, !tbaa !47
  %13 = getelementptr inbounds nuw %struct.Vec_Int_t_, ptr %12, i32 0, i32 2
  %14 = load ptr, ptr %13, align 8, !tbaa !50
  %15 = icmp ne ptr %14, null
  br i1 %15, label %16, label %24

16:                                               ; preds = %11
  %17 = load ptr, ptr %3, align 8, !tbaa !47
  %18 = getelementptr inbounds nuw %struct.Vec_Int_t_, ptr %17, i32 0, i32 2
  %19 = load ptr, ptr %18, align 8, !tbaa !50
  %20 = load i32, ptr %4, align 4, !tbaa !11
  %21 = sext i32 %20 to i64
  %22 = mul i64 4, %21
  %23 = call ptr @realloc(ptr noundef %19, i64 noundef %22) #14
  br label %29

24:                                               ; preds = %11
  %25 = load i32, ptr %4, align 4, !tbaa !11
  %26 = sext i32 %25 to i64
  %27 = mul i64 4, %26
  %28 = call noalias ptr @malloc(i64 noundef %27) #12
  br label %29

29:                                               ; preds = %24, %16
  %30 = phi ptr [ %23, %16 ], [ %28, %24 ]
  %31 = load ptr, ptr %3, align 8, !tbaa !47
  %32 = getelementptr inbounds nuw %struct.Vec_Int_t_, ptr %31, i32 0, i32 2
  store ptr %30, ptr %32, align 8, !tbaa !50
  %33 = load i32, ptr %4, align 4, !tbaa !11
  %34 = load ptr, ptr %3, align 8, !tbaa !47
  %35 = getelementptr inbounds nuw %struct.Vec_Int_t_, ptr %34, i32 0, i32 0
  store i32 %33, ptr %35, align 8, !tbaa !49
  br label %36

36:                                               ; preds = %29, %10
  ret void
}

; Function Attrs: inlinehint nounwind uwtable
define internal ptr @Vec_PtrEntry(ptr noundef %0, i32 noundef %1) #2 {
  %3 = alloca ptr, align 8
  %4 = alloca i32, align 4
  store ptr %0, ptr %3, align 8, !tbaa !13
  store i32 %1, ptr %4, align 4, !tbaa !11
  %5 = load ptr, ptr %3, align 8, !tbaa !13
  %6 = getelementptr inbounds nuw %struct.Vec_Ptr_t_, ptr %5, i32 0, i32 2
  %7 = load ptr, ptr %6, align 8, !tbaa !20
  %8 = load i32, ptr %4, align 4, !tbaa !11
  %9 = sext i32 %8 to i64
  %10 = getelementptr inbounds ptr, ptr %7, i64 %9
  %11 = load ptr, ptr %10, align 8, !tbaa !21
  ret ptr %11
}

; Function Attrs: inlinehint nounwind uwtable
define internal void @Vec_IntPush(ptr noundef %0, i32 noundef %1) #2 {
  %3 = alloca ptr, align 8
  %4 = alloca i32, align 4
  store ptr %0, ptr %3, align 8, !tbaa !47
  store i32 %1, ptr %4, align 4, !tbaa !11
  %5 = load ptr, ptr %3, align 8, !tbaa !47
  %6 = getelementptr inbounds nuw %struct.Vec_Int_t_, ptr %5, i32 0, i32 1
  %7 = load i32, ptr %6, align 4, !tbaa !48
  %8 = load ptr, ptr %3, align 8, !tbaa !47
  %9 = getelementptr inbounds nuw %struct.Vec_Int_t_, ptr %8, i32 0, i32 0
  %10 = load i32, ptr %9, align 8, !tbaa !49
  %11 = icmp eq i32 %7, %10
  br i1 %11, label %12, label %26

12:                                               ; preds = %2
  %13 = load ptr, ptr %3, align 8, !tbaa !47
  %14 = getelementptr inbounds nuw %struct.Vec_Int_t_, ptr %13, i32 0, i32 0
  %15 = load i32, ptr %14, align 8, !tbaa !49
  %16 = icmp slt i32 %15, 16
  br i1 %16, label %17, label %19

17:                                               ; preds = %12
  %18 = load ptr, ptr %3, align 8, !tbaa !47
  call void @Vec_IntGrow(ptr noundef %18, i32 noundef 16)
  br label %25

19:                                               ; preds = %12
  %20 = load ptr, ptr %3, align 8, !tbaa !47
  %21 = load ptr, ptr %3, align 8, !tbaa !47
  %22 = getelementptr inbounds nuw %struct.Vec_Int_t_, ptr %21, i32 0, i32 0
  %23 = load i32, ptr %22, align 8, !tbaa !49
  %24 = mul nsw i32 2, %23
  call void @Vec_IntGrow(ptr noundef %20, i32 noundef %24)
  br label %25

25:                                               ; preds = %19, %17
  br label %26

26:                                               ; preds = %25, %2
  %27 = load i32, ptr %4, align 4, !tbaa !11
  %28 = load ptr, ptr %3, align 8, !tbaa !47
  %29 = getelementptr inbounds nuw %struct.Vec_Int_t_, ptr %28, i32 0, i32 2
  %30 = load ptr, ptr %29, align 8, !tbaa !50
  %31 = load ptr, ptr %3, align 8, !tbaa !47
  %32 = getelementptr inbounds nuw %struct.Vec_Int_t_, ptr %31, i32 0, i32 1
  %33 = load i32, ptr %32, align 4, !tbaa !48
  %34 = add nsw i32 %33, 1
  store i32 %34, ptr %32, align 4, !tbaa !48
  %35 = sext i32 %33 to i64
  %36 = getelementptr inbounds i32, ptr %30, i64 %35
  store i32 %27, ptr %36, align 4, !tbaa !11
  ret void
}

; Function Attrs: inlinehint nounwind uwtable
define internal i32 @Abc_ObjId(ptr noundef %0) #2 {
  %2 = alloca ptr, align 8
  store ptr %0, ptr %2, align 8, !tbaa !3
  %3 = load ptr, ptr %2, align 8, !tbaa !3
  %4 = getelementptr inbounds nuw %struct.Abc_Obj_t_, ptr %3, i32 0, i32 2
  %5 = load i32, ptr %4, align 8, !tbaa !51
  ret i32 %5
}

; Function Attrs: inlinehint nounwind uwtable
define internal ptr @Abc_ObjFanin(ptr noundef %0, i32 noundef %1) #2 {
  %3 = alloca ptr, align 8
  %4 = alloca i32, align 4
  store ptr %0, ptr %3, align 8, !tbaa !3
  store i32 %1, ptr %4, align 4, !tbaa !11
  %5 = load ptr, ptr %3, align 8, !tbaa !3
  %6 = getelementptr inbounds nuw %struct.Abc_Obj_t_, ptr %5, i32 0, i32 0
  %7 = load ptr, ptr %6, align 8, !tbaa !24
  %8 = getelementptr inbounds nuw %struct.Abc_Ntk_t_, ptr %7, i32 0, i32 5
  %9 = load ptr, ptr %8, align 8, !tbaa !53
  %10 = getelementptr inbounds nuw %struct.Vec_Ptr_t_, ptr %9, i32 0, i32 2
  %11 = load ptr, ptr %10, align 8, !tbaa !20
  %12 = load ptr, ptr %3, align 8, !tbaa !3
  %13 = getelementptr inbounds nuw %struct.Abc_Obj_t_, ptr %12, i32 0, i32 4
  %14 = getelementptr inbounds nuw %struct.Vec_Int_t_, ptr %13, i32 0, i32 2
  %15 = load ptr, ptr %14, align 8, !tbaa !58
  %16 = load i32, ptr %4, align 4, !tbaa !11
  %17 = sext i32 %16 to i64
  %18 = getelementptr inbounds i32, ptr %15, i64 %17
  %19 = load i32, ptr %18, align 4, !tbaa !11
  %20 = sext i32 %19 to i64
  %21 = getelementptr inbounds ptr, ptr %11, i64 %20
  %22 = load ptr, ptr %21, align 8, !tbaa !21
  ret ptr %22
}

; Function Attrs: inlinehint nounwind uwtable
define internal i32 @Abc_ObjFaninNum(ptr noundef %0) #2 {
  %2 = alloca ptr, align 8
  store ptr %0, ptr %2, align 8, !tbaa !3
  %3 = load ptr, ptr %2, align 8, !tbaa !3
  %4 = getelementptr inbounds nuw %struct.Abc_Obj_t_, ptr %3, i32 0, i32 4
  %5 = getelementptr inbounds nuw %struct.Vec_Int_t_, ptr %4, i32 0, i32 1
  %6 = load i32, ptr %5, align 4, !tbaa !45
  ret i32 %6
}

; Function Attrs: inlinehint nounwind uwtable
define internal i32 @Abc_ObjIsNode(ptr noundef %0) #2 {
  %2 = alloca ptr, align 8
  store ptr %0, ptr %2, align 8, !tbaa !3
  %3 = load ptr, ptr %2, align 8, !tbaa !3
  %4 = getelementptr inbounds nuw %struct.Abc_Obj_t_, ptr %3, i32 0, i32 3
  %5 = load i32, ptr %4, align 4
  %6 = and i32 %5, 15
  %7 = icmp eq i32 %6, 7
  %8 = zext i1 %7 to i32
  ret i32 %8
}

; Function Attrs: inlinehint nounwind uwtable
define internal void @Vec_IntClear(ptr noundef %0) #2 {
  %2 = alloca ptr, align 8
  store ptr %0, ptr %2, align 8, !tbaa !47
  %3 = load ptr, ptr %2, align 8, !tbaa !47
  %4 = getelementptr inbounds nuw %struct.Vec_Int_t_, ptr %3, i32 0, i32 1
  store i32 0, ptr %4, align 4, !tbaa !48
  ret void
}

; Function Attrs: inlinehint nounwind uwtable
define internal ptr @Abc_NtkObj(ptr noundef %0, i32 noundef %1) #2 {
  %3 = alloca ptr, align 8
  %4 = alloca i32, align 4
  store ptr %0, ptr %3, align 8, !tbaa !52
  store i32 %1, ptr %4, align 4, !tbaa !11
  %5 = load ptr, ptr %3, align 8, !tbaa !52
  %6 = getelementptr inbounds nuw %struct.Abc_Ntk_t_, ptr %5, i32 0, i32 5
  %7 = load ptr, ptr %6, align 8, !tbaa !53
  %8 = load i32, ptr %4, align 4, !tbaa !11
  %9 = call ptr @Vec_PtrEntry(ptr noundef %7, i32 noundef %8)
  ret ptr %9
}

; Function Attrs: inlinehint nounwind uwtable
define internal i32 @Vec_PtrSize(ptr noundef %0) #2 {
  %2 = alloca ptr, align 8
  store ptr %0, ptr %2, align 8, !tbaa !13
  %3 = load ptr, ptr %2, align 8, !tbaa !13
  %4 = getelementptr inbounds nuw %struct.Vec_Ptr_t_, ptr %3, i32 0, i32 1
  %5 = load i32, ptr %4, align 4, !tbaa !15
  ret i32 %5
}

; Function Attrs: nounwind uwtable
define i32 @Abc_NtkMinimumBase2(ptr noundef %0) #0 {
  %2 = alloca ptr, align 8
  %3 = alloca ptr, align 8
  %4 = alloca ptr, align 8
  %5 = alloca i32, align 4
  %6 = alloca i32, align 4
  %7 = alloca i32, align 4
  store ptr %0, ptr %2, align 8, !tbaa !52
  call void @llvm.lifetime.start.p0(i64 8, ptr %3) #11
  call void @llvm.lifetime.start.p0(i64 8, ptr %4) #11
  call void @llvm.lifetime.start.p0(i64 4, ptr %5) #11
  call void @llvm.lifetime.start.p0(i64 4, ptr %6) #11
  call void @llvm.lifetime.start.p0(i64 4, ptr %7) #11
  store i32 0, ptr %5, align 4, !tbaa !11
  br label %8

8:                                                ; preds = %29, %1
  %9 = load i32, ptr %5, align 4, !tbaa !11
  %10 = load ptr, ptr %2, align 8, !tbaa !52
  %11 = getelementptr inbounds nuw %struct.Abc_Ntk_t_, ptr %10, i32 0, i32 5
  %12 = load ptr, ptr %11, align 8, !tbaa !53
  %13 = call i32 @Vec_PtrSize(ptr noundef %12)
  %14 = icmp slt i32 %9, %13
  br i1 %14, label %15, label %19

15:                                               ; preds = %8
  %16 = load ptr, ptr %2, align 8, !tbaa !52
  %17 = load i32, ptr %5, align 4, !tbaa !11
  %18 = call ptr @Abc_NtkObj(ptr noundef %16, i32 noundef %17)
  store ptr %18, ptr %3, align 8, !tbaa !3
  br label %19

19:                                               ; preds = %15, %8
  %20 = phi i1 [ false, %8 ], [ true, %15 ]
  br i1 %20, label %21, label %32

21:                                               ; preds = %19
  %22 = load ptr, ptr %3, align 8, !tbaa !3
  %23 = icmp eq ptr %22, null
  br i1 %23, label %24, label %25

24:                                               ; preds = %21
  br label %28

25:                                               ; preds = %21
  %26 = load ptr, ptr %3, align 8, !tbaa !3
  %27 = getelementptr inbounds nuw %struct.Abc_Obj_t_, ptr %26, i32 0, i32 5
  call void @Vec_IntClear(ptr noundef %27)
  br label %28

28:                                               ; preds = %25, %24
  br label %29

29:                                               ; preds = %28
  %30 = load i32, ptr %5, align 4, !tbaa !11
  %31 = add nsw i32 %30, 1
  store i32 %31, ptr %5, align 4, !tbaa !11
  br label %8, !llvm.loop !54

32:                                               ; preds = %19
  store i32 0, ptr %7, align 4, !tbaa !11
  store i32 0, ptr %5, align 4, !tbaa !11
  br label %33

33:                                               ; preds = %60, %32
  %34 = load i32, ptr %5, align 4, !tbaa !11
  %35 = load ptr, ptr %2, align 8, !tbaa !52
  %36 = getelementptr inbounds nuw %struct.Abc_Ntk_t_, ptr %35, i32 0, i32 5
  %37 = load ptr, ptr %36, align 8, !tbaa !53
  %38 = call i32 @Vec_PtrSize(ptr noundef %37)
  %39 = icmp slt i32 %34, %38
  br i1 %39, label %40, label %44

40:                                               ; preds = %33
  %41 = load ptr, ptr %2, align 8, !tbaa !52
  %42 = load i32, ptr %5, align 4, !tbaa !11
  %43 = call ptr @Abc_NtkObj(ptr noundef %41, i32 noundef %42)
  store ptr %43, ptr %3, align 8, !tbaa !3
  br label %44

44:                                               ; preds = %40, %33
  %45 = phi i1 [ false, %33 ], [ true, %40 ]
  br i1 %45, label %46, label %63

46:                                               ; preds = %44
  %47 = load ptr, ptr %3, align 8, !tbaa !3
  %48 = icmp eq ptr %47, null
  br i1 %48, label %53, label %49

49:                                               ; preds = %46
  %50 = load ptr, ptr %3, align 8, !tbaa !3
  %51 = call i32 @Abc_ObjIsNode(ptr noundef %50)
  %52 = icmp ne i32 %51, 0
  br i1 %52, label %54, label %53

53:                                               ; preds = %49, %46
  br label %59

54:                                               ; preds = %49
  %55 = load ptr, ptr %3, align 8, !tbaa !3
  %56 = call i32 @Abc_NodeMinimumBase2(ptr noundef %55)
  %57 = load i32, ptr %7, align 4, !tbaa !11
  %58 = add nsw i32 %57, %56
  store i32 %58, ptr %7, align 4, !tbaa !11
  br label %59

59:                                               ; preds = %54, %53
  br label %60

60:                                               ; preds = %59
  %61 = load i32, ptr %5, align 4, !tbaa !11
  %62 = add nsw i32 %61, 1
  store i32 %62, ptr %5, align 4, !tbaa !11
  br label %33, !llvm.loop !55

63:                                               ; preds = %44
  store i32 0, ptr %5, align 4, !tbaa !11
  br label %64

64:                                               ; preds = %103, %63
  %65 = load i32, ptr %5, align 4, !tbaa !11
  %66 = load ptr, ptr %2, align 8, !tbaa !52
  %67 = getelementptr inbounds nuw %struct.Abc_Ntk_t_, ptr %66, i32 0, i32 5
  %68 = load ptr, ptr %67, align 8, !tbaa !53
  %69 = call i32 @Vec_PtrSize(ptr noundef %68)
  %70 = icmp slt i32 %65, %69
  br i1 %70, label %71, label %75

71:                                               ; preds = %64
  %72 = load ptr, ptr %2, align 8, !tbaa !52
  %73 = load i32, ptr %5, align 4, !tbaa !11
  %74 = call ptr @Abc_NtkObj(ptr noundef %72, i32 noundef %73)
  store ptr %74, ptr %3, align 8, !tbaa !3
  br label %75

75:                                               ; preds = %71, %64
  %76 = phi i1 [ false, %64 ], [ true, %71 ]
  br i1 %76, label %77, label %106

77:                                               ; preds = %75
  %78 = load ptr, ptr %3, align 8, !tbaa !3
  %79 = icmp eq ptr %78, null
  br i1 %79, label %80, label %81

80:                                               ; preds = %77
  br label %102

81:                                               ; preds = %77
  store i32 0, ptr %6, align 4, !tbaa !11
  br label %82

82:                                               ; preds = %98, %81
  %83 = load i32, ptr %6, align 4, !tbaa !11
  %84 = load ptr, ptr %3, align 8, !tbaa !3
  %85 = call i32 @Abc_ObjFaninNum(ptr noundef %84)
  %86 = icmp slt i32 %83, %85
  br i1 %86, label %87, label %91

87:                                               ; preds = %82
  %88 = load ptr, ptr %3, align 8, !tbaa !3
  %89 = load i32, ptr %6, align 4, !tbaa !11
  %90 = call ptr @Abc_ObjFanin(ptr noundef %88, i32 noundef %89)
  store ptr %90, ptr %4, align 8, !tbaa !3
  br label %91

91:                                               ; preds = %87, %82
  %92 = phi i1 [ false, %82 ], [ true, %87 ]
  br i1 %92, label %93, label %101

93:                                               ; preds = %91
  %94 = load ptr, ptr %4, align 8, !tbaa !3
  %95 = getelementptr inbounds nuw %struct.Abc_Obj_t_, ptr %94, i32 0, i32 5
  %96 = load ptr, ptr %3, align 8, !tbaa !3
  %97 = call i32 @Abc_ObjId(ptr noundef %96)
  call void @Vec_IntPush(ptr noundef %95, i32 noundef %97)
  br label %98

98:                                               ; preds = %93
  %99 = load i32, ptr %6, align 4, !tbaa !11
  %100 = add nsw i32 %99, 1
  store i32 %100, ptr %6, align 4, !tbaa !11
  br label %82, !llvm.loop !56

101:                                              ; preds = %91
  br label %102

102:                                              ; preds = %101, %80
  br label %103

103:                                              ; preds = %102
  %104 = load i32, ptr %5, align 4, !tbaa !11
  %105 = add nsw i32 %104, 1
  store i32 %105, ptr %5, align 4, !tbaa !11
  br label %64, !llvm.loop !57

106:                                              ; preds = %75
  %107 = load i32, ptr %7, align 4, !tbaa !11
  call void @llvm.lifetime.end.p0(i64 4, ptr %7) #11
  call void @llvm.lifetime.end.p0(i64 4, ptr %6) #11
  call void @llvm.lifetime.end.p0(i64 4, ptr %5) #11
  call void @llvm.lifetime.end.p0(i64 8, ptr %4) #11
  call void @llvm.lifetime.end.p0(i64 8, ptr %3) #11
  ret i32 %107
}