; Function Attrs: nounwind uwtable
define i32 @Abc_NtkMinimumBase2(ptr noundef readonly captures(none) %0) local_unnamed_addr #0 {
  %2 = getelementptr inbounds nuw i8, ptr %0, i64 32
  %3 = load ptr, ptr %2, align 8, !tbaa !45
  %4 = getelementptr i8, ptr %3, i64 4
  %.val42 = load i32, ptr %4, align 4, !tbaa !19
  %5 = icmp sgt i32 %.val42, 0
  br i1 %5, label %.lr.ph, label %.critedge4

.lr.ph:                                           ; preds = %1
  %6 = getelementptr i8, ptr %3, i64 8
  %.val45.val = load ptr, ptr %6, align 8, !tbaa !22
  %wide.trip.count = zext nneg i32 %.val42 to i64
  br label %7

7:                                                ; preds = %.lr.ph, %13
  %indvars.iv = phi i64 [ 0, %.lr.ph ], [ %indvars.iv.next, %13 ]
  %8 = getelementptr inbounds nuw ptr, ptr %.val45.val, i64 %indvars.iv
  %9 = load ptr, ptr %8, align 8, !tbaa !24
  %10 = icmp eq ptr %9, null
  br i1 %10, label %13, label %11

11:                                               ; preds = %7
  %12 = getelementptr inbounds nuw i8, ptr %9, i64 44
  store i32 0, ptr %12, align 4, !tbaa !23
  br label %13

13:                                               ; preds = %11, %7
  %indvars.iv.next = add nuw nsw i64 %indvars.iv, 1
  %exitcond.not = icmp eq i64 %indvars.iv.next, %wide.trip.count
  br i1 %exitcond.not, label %.lr.ph55, label %7, !llvm.loop !46

.critedge2.preheader:                             ; preds = %.critedge
  %14 = icmp sgt i32 %.val43, 0
  br i1 %14, label %.lr.ph61, label %.critedge4

.lr.ph55:                                         ; preds = %13, %.critedge
  %15 = phi ptr [ %26, %.critedge ], [ %3, %13 ]
  %indvars.iv63 = phi i64 [ %indvars.iv.next64, %.critedge ], [ 0, %13 ]
  %.054 = phi i32 [ %.1, %.critedge ], [ 0, %13 ]
  %16 = getelementptr i8, ptr %15, i64 8
  %.val46.val = load ptr, ptr %16, align 8, !tbaa !22
  %17 = getelementptr inbounds nuw ptr, ptr %.val46.val, i64 %indvars.iv63
  %18 = load ptr, ptr %17, align 8, !tbaa !24
  %19 = icmp eq ptr %18, null
  br i1 %19, label %.critedge, label %20

20:                                               ; preds = %.lr.ph55
  %21 = getelementptr i8, ptr %18, i64 20
  %.val48 = load i32, ptr %21, align 4
  %22 = and i32 %.val48, 15
  %.not = icmp eq i32 %22, 7
  br i1 %.not, label %23, label %.critedge

23:                                               ; preds = %20
  %24 = tail call i32 @Abc_NodeMinimumBase2(ptr noundef nonnull %18)
  %25 = add nsw i32 %24, %.054
  %.pre = load ptr, ptr %2, align 8, !tbaa !45
  br label %.critedge

.critedge:                                        ; preds = %23, %20, %.lr.ph55
  %26 = phi ptr [ %15, %.lr.ph55 ], [ %.pre, %23 ], [ %15, %20 ]
  %.1 = phi i32 [ %.054, %.lr.ph55 ], [ %25, %23 ], [ %.054, %20 ]
  %indvars.iv.next64 = add nuw nsw i64 %indvars.iv63, 1
  %27 = getelementptr i8, ptr %26, i64 4
  %.val43 = load i32, ptr %27, align 4, !tbaa !19
  %28 = sext i32 %.val43 to i64
  %29 = icmp slt i64 %indvars.iv.next64, %28
  br i1 %29, label %.lr.ph55, label %.critedge2.preheader, !llvm.loop !47

.lr.ph61:                                         ; preds = %.critedge2.preheader, %.critedge6
  %30 = phi ptr [ %81, %.critedge6 ], [ %26, %.critedge2.preheader ]
  %indvars.iv69 = phi i64 [ %indvars.iv.next70, %.critedge6 ], [ 0, %.critedge2.preheader ]
  %31 = getelementptr i8, ptr %30, i64 8
  %.val47.val = load ptr, ptr %31, align 8, !tbaa !22
  %32 = getelementptr inbounds nuw ptr, ptr %.val47.val, i64 %indvars.iv69
  %33 = load ptr, ptr %32, align 8, !tbaa !24
  %34 = icmp eq ptr %33, null
  br i1 %34, label %.critedge6, label %.preheader

.preheader:                                       ; preds = %.lr.ph61
  %35 = getelementptr i8, ptr %33, i64 28
  %.val56 = load i32, ptr %35, align 4, !tbaa !13
  %36 = icmp sgt i32 %.val56, 0
  br i1 %36, label %.lr.ph58, label %.critedge6

.lr.ph58:                                         ; preds = %.preheader
  %37 = getelementptr i8, ptr %33, i64 32
  %38 = getelementptr i8, ptr %33, i64 16
  br label %39

39:                                               ; preds = %.lr.ph58, %Vec_IntPush.exit
  %indvars.iv66 = phi i64 [ 0, %.lr.ph58 ], [ %indvars.iv.next67, %Vec_IntPush.exit ]
  %.val49 = load ptr, ptr %33, align 8, !tbaa !31
  %.val50 = load ptr, ptr %37, align 8, !tbaa !48
  %40 = getelementptr i8, ptr %.val49, i64 32
  %.val49.val = load ptr, ptr %40, align 8, !tbaa !45
  %41 = getelementptr i8, ptr %.val49.val, i64 8
  %.val49.val.val = load ptr, ptr %41, align 8, !tbaa !22
  %42 = getelementptr inbounds nuw i32, ptr %.val50, i64 %indvars.iv66
  %43 = load i32, ptr %42, align 4, !tbaa !28
  %44 = sext i32 %43 to i64
  %45 = getelementptr inbounds ptr, ptr %.val49.val.val, i64 %44
  %46 = load ptr, ptr %45, align 8, !tbaa !24
  %47 = getelementptr inbounds nuw i8, ptr %46, i64 40
  %.val41 = load i32, ptr %38, align 8, !tbaa !25
  %48 = getelementptr inbounds nuw i8, ptr %46, i64 44
  %49 = load i32, ptr %48, align 4, !tbaa !23
  %50 = load i32, ptr %47, align 8, !tbaa !26
  %51 = icmp eq i32 %49, %50
  br i1 %51, label %52, label %.Vec_IntGrow.exit10_crit_edge.i

.Vec_IntGrow.exit10_crit_edge.i:                  ; preds = %39
  %.phi.trans.insert.i = getelementptr inbounds nuw i8, ptr %46, i64 48
  %.pre.i = load ptr, ptr %.phi.trans.insert.i, align 8, !tbaa !27
  br label %Vec_IntPush.exit

52:                                               ; preds = %39
  %53 = icmp slt i32 %49, 16
  br i1 %53, label %54, label %62

54:                                               ; preds = %52
  %55 = getelementptr inbounds nuw i8, ptr %46, i64 48
  %56 = load ptr, ptr %55, align 8, !tbaa !27
  %.not9.i.i = icmp eq ptr %56, null
  br i1 %.not9.i.i, label %59, label %57

57:                                               ; preds = %54
  %58 = tail call dereferenceable_or_null(64) ptr @realloc(ptr noundef nonnull %56, i64 noundef 64) #19
  br label %Vec_IntGrow.exit.i

59:                                               ; preds = %54
  %60 = tail call noalias dereferenceable_or_null(64) ptr @malloc(i64 noundef 64) #17
  br label %Vec_IntGrow.exit.i

Vec_IntGrow.exit.i:                               ; preds = %59, %57
  %61 = phi ptr [ %58, %57 ], [ %60, %59 ]
  store ptr %61, ptr %55, align 8, !tbaa !27
  store i32 16, ptr %47, align 8, !tbaa !26
  br label %Vec_IntPush.exit

62:                                               ; preds = %52
  %63 = shl nuw nsw i32 %49, 1
  %64 = getelementptr inbounds nuw i8, ptr %46, i64 48
  %65 = load ptr, ptr %64, align 8, !tbaa !27
  %.not9.i9.i = icmp eq ptr %65, null
  %66 = zext nneg i32 %63 to i64
  %67 = shl nuw nsw i64 %66, 2
  br i1 %.not9.i9.i, label %70, label %68

68:                                               ; preds = %62
  %69 = tail call ptr @realloc(ptr noundef nonnull %65, i64 noundef %67) #19
  br label %72

70:                                               ; preds = %62
  %71 = tail call noalias ptr @malloc(i64 noundef %67) #17
  br label %72

72:                                               ; preds = %70, %68
  %73 = phi ptr [ %69, %68 ], [ %71, %70 ]
  store ptr %73, ptr %64, align 8, !tbaa !27
  store i32 %63, ptr %47, align 8, !tbaa !26
  br label %Vec_IntPush.exit

Vec_IntPush.exit:                                 ; preds = %.Vec_IntGrow.exit10_crit_edge.i, %Vec_IntGrow.exit.i, %72
  %74 = phi ptr [ %.pre.i, %.Vec_IntGrow.exit10_crit_edge.i ], [ %73, %72 ], [ %61, %Vec_IntGrow.exit.i ]
  %75 = load i32, ptr %48, align 4, !tbaa !23
  %76 = add nsw i32 %75, 1
  store i32 %76, ptr %48, align 4, !tbaa !23
  %77 = sext i32 %75 to i64
  %78 = getelementptr inbounds i32, ptr %74, i64 %77
  store i32 %.val41, ptr %78, align 4, !tbaa !28
  %indvars.iv.next67 = add nuw nsw i64 %indvars.iv66, 1
  %.val = load i32, ptr %35, align 4, !tbaa !13
  %79 = sext i32 %.val to i64
  %80 = icmp slt i64 %indvars.iv.next67, %79
  br i1 %80, label %39, label %.critedge6.loopexit, !llvm.loop !49

.critedge6.loopexit:                              ; preds = %Vec_IntPush.exit
  %.pre73 = load ptr, ptr %2, align 8, !tbaa !45
  br label %.critedge6

.critedge6:                                       ; preds = %.critedge6.loopexit, %.preheader, %.lr.ph61
  %81 = phi ptr [ %.pre73, %.critedge6.loopexit ], [ %30, %.preheader ], [ %30, %.lr.ph61 ]
  %indvars.iv.next70 = add nuw nsw i64 %indvars.iv69, 1
  %82 = getelementptr i8, ptr %81, i64 4
  %.val44 = load i32, ptr %82, align 4, !tbaa !19
  %83 = sext i32 %.val44 to i64
  %84 = icmp slt i64 %indvars.iv.next70, %83
  br i1 %84, label %.lr.ph61, label %.critedge4, !llvm.loop !50

.critedge4:                                       ; preds = %.critedge6, %1, %.critedge2.preheader
  %.0.lcssa76 = phi i32 [ %.1, %.critedge2.preheader ], [ 0, %1 ], [ %.1, %.critedge6 ]
  ret i32 %.0.lcssa76
}